; Function Attrs: nounwind uwtable
define void @Java_com_sun_imageio_plugins_jpeg_JPEGImageWriter_resetWriter(ptr noundef %0, ptr nocapture noundef readnone %1, i64 noundef %2) local_unnamed_addr #1 {
  %4 = icmp eq i64 %2, 0
  br i1 %4, label %5, label %6

5:                                                ; preds = %3
  tail call void @JNU_ThrowByName(ptr noundef %0, ptr noundef nonnull @.str.25, ptr noundef nonnull @.str.37) #13
  br label %13

6:                                                ; preds = %3
  %7 = inttoptr i64 %2 to ptr
  %8 = load ptr, ptr %7, align 8
  tail call fastcc void @imageio_reset(ptr noundef %0, ptr noundef %8, ptr noundef nonnull %7)
  %9 = getelementptr inbounds i8, ptr %8, i64 40
  %10 = load ptr, ptr %9, align 8
  store ptr null, ptr %10, align 8
  %11 = load ptr, ptr %9, align 8
  %12 = getelementptr inbounds i8, ptr %11, i64 8
  store i64 0, ptr %12, align 8
  br label %13

13:                                               ; preds = %6, %5
  ret void
}